target datalayout = "e-m:e-p270:32:32-p271:32:32-p272:64:64-i64:64-i128:128-f80:128-n8:16:32:64-S128"
target triple = "x86_64-pc-linux-gnu"

%struct.hwloc_topology = type { i32, i32, i32, ptr, ptr, i64, [20 x i32], [20 x i32], i64, i64, i32, ptr, i64, ptr, i64, [6 x %struct.hwloc_special_level_s], ptr, ptr, %struct.hwloc_binding_hooks, %struct.hwloc_topology_support, %struct.hwloc_infos_s, ptr, ptr, i32, ptr, ptr, i32, i32, ptr, i32, i32, ptr, i32, i32, i32, [5 x float], i32, ptr, ptr, i32, i32, ptr, i32, %struct.hwloc_numanode_attr_s, i32, i32, ptr, i64, i32, ptr, ptr, ptr }
%struct.hwloc_special_level_s = type { i32, ptr, ptr, ptr }
%struct.hwloc_binding_hooks = type { ptr, ptr, ptr, ptr, ptr, ptr, ptr, ptr, ptr, ptr, ptr, ptr, ptr, ptr, ptr, ptr, ptr, ptr, ptr, ptr, ptr, ptr, ptr, ptr }
%struct.hwloc_topology_support = type { ptr, ptr, ptr, ptr }
%struct.hwloc_infos_s = type { ptr, i32, i32 }
%struct.hwloc_numanode_attr_s = type { i64, i32, ptr }
%struct.hwloc_internal_distances_s = type { ptr, i32, i32, ptr, i32, ptr, ptr, i64, i32, ptr, ptr, ptr }

; Function Attrs: nounwind uwtable
define internal void @hwloc_backend_distances_add__cancel(ptr noundef %0) #0 {
  %2 = alloca ptr, align 8
  store ptr %0, ptr %2, align 8, !tbaa !46
  %3 = load ptr, ptr %2, align 8, !tbaa !46
  %4 = getelementptr inbounds nuw %struct.hwloc_internal_distances_s, ptr %3, i32 0, i32 0
  %5 = load ptr, ptr %4, align 8, !tbaa !53
  call void @free(ptr noundef %5) #15
  %6 = load ptr, ptr %2, align 8, !tbaa !46
  %7 = getelementptr inbounds nuw %struct.hwloc_internal_distances_s, ptr %6, i32 0, i32 5
  %8 = load ptr, ptr %7, align 8, !tbaa !55
  call void @free(ptr noundef %8) #15
  %9 = load ptr, ptr %2, align 8, !tbaa !46
  %10 = getelementptr inbounds nuw %struct.hwloc_internal_distances_s, ptr %9, i32 0, i32 9
  %11 = load ptr, ptr %10, align 8, !tbaa !56
  call void @free(ptr noundef %11) #15
  %12 = load ptr, ptr %2, align 8, !tbaa !46
  %13 = getelementptr inbounds nuw %struct.hwloc_internal_distances_s, ptr %12, i32 0, i32 3
  %14 = load ptr, ptr %13, align 8, !tbaa !54
  call void @free(ptr noundef %14) #15
  %15 = load ptr, ptr %2, align 8, !tbaa !46
  %16 = getelementptr inbounds nuw %struct.hwloc_internal_distances_s, ptr %15, i32 0, i32 6
  %17 = load ptr, ptr %16, align 8, !tbaa !57
  call void @free(ptr noundef %17) #15
  %18 = load ptr, ptr %2, align 8, !tbaa !46
  call void @free(ptr noundef %18) #15
  ret void
}

; Function Attrs: nounwind uwtable
define ptr @hwloc_backend_distances_add_create(ptr noundef %0, ptr noundef %1, i64 noundef %2, i64 noundef %3) #0 {
  %5 = alloca ptr, align 8
  %6 = alloca ptr, align 8
  %7 = alloca ptr, align 8
  %8 = alloca i64, align 8
  %9 = alloca i64, align 8
  %10 = alloca ptr, align 8
  %11 = alloca i32, align 4
  store ptr %0, ptr %6, align 8, !tbaa !3
  store ptr %1, ptr %7, align 8, !tbaa !39
  store i64 %2, ptr %8, align 8, !tbaa !80
  store i64 %3, ptr %9, align 8, !tbaa !80
  call void @llvm.lifetime.start.p0(i64 8, ptr %10) #15
  %12 = load i64, ptr %9, align 8, !tbaa !80
  %13 = icmp ne i64 %12, 0
  br i1 %13, label %14, label %16

14:                                               ; preds = %4
  %15 = call ptr @__errno_location() #17
  store i32 22, ptr %15, align 4, !tbaa !38
  br label %62

16:                                               ; preds = %4
  %17 = call noalias ptr @calloc(i64 noundef 1, i64 noundef 88) #18
  store ptr %17, ptr %10, align 8, !tbaa !46
  %18 = load ptr, ptr %10, align 8, !tbaa !46
  %19 = icmp ne ptr %18, null
  br i1 %19, label %21, label %20

20:                                               ; preds = %16
  br label %62

21:                                               ; preds = %16
  %22 = load ptr, ptr %7, align 8, !tbaa !39
  %23 = icmp ne ptr %22, null
  br i1 %23, label %24, label %35

24:                                               ; preds = %21
  %25 = load ptr, ptr %7, align 8, !tbaa !39
  %26 = call noalias ptr @strdup(ptr noundef %25) #15
  %27 = load ptr, ptr %10, align 8, !tbaa !46
  %28 = getelementptr inbounds nuw %struct.hwloc_internal_distances_s, ptr %27, i32 0, i32 0
  store ptr %26, ptr %28, align 8, !tbaa !53
  %29 = load ptr, ptr %10, align 8, !tbaa !46
  %30 = getelementptr inbounds nuw %struct.hwloc_internal_distances_s, ptr %29, i32 0, i32 0
  %31 = load ptr, ptr %30, align 8, !tbaa !53
  %32 = icmp ne ptr %31, null
  br i1 %32, label %34, label %33

33:                                               ; preds = %24
  br label %60

34:                                               ; preds = %24
  br label %35

35:                                               ; preds = %34, %21
  %36 = load i64, ptr %8, align 8, !tbaa !80
  %37 = load ptr, ptr %10, align 8, !tbaa !46
  %38 = getelementptr inbounds nuw %struct.hwloc_internal_distances_s, ptr %37, i32 0, i32 7
  store i64 %36, ptr %38, align 8, !tbaa !63
  %39 = load ptr, ptr %10, align 8, !tbaa !46
  %40 = getelementptr inbounds nuw %struct.hwloc_internal_distances_s, ptr %39, i32 0, i32 8
  store i32 2, ptr %40, align 8, !tbaa !65
  %41 = load ptr, ptr %10, align 8, !tbaa !46
  %42 = getelementptr inbounds nuw %struct.hwloc_internal_distances_s, ptr %41, i32 0, i32 2
  store i32 -1, ptr %42, align 4, !tbaa !62
  %43 = load ptr, ptr %10, align 8, !tbaa !46
  %44 = getelementptr inbounds nuw %struct.hwloc_internal_distances_s, ptr %43, i32 0, i32 3
  store ptr null, ptr %44, align 8, !tbaa !54
  %45 = load ptr, ptr %10, align 8, !tbaa !46
  %46 = getelementptr inbounds nuw %struct.hwloc_internal_distances_s, ptr %45, i32 0, i32 4
  store i32 0, ptr %46, align 8, !tbaa !61
  %47 = load ptr, ptr %10, align 8, !tbaa !46
  %48 = getelementptr inbounds nuw %struct.hwloc_internal_distances_s, ptr %47, i32 0, i32 5
  store ptr null, ptr %48, align 8, !tbaa !55
  %49 = load ptr, ptr %10, align 8, !tbaa !46
  %50 = getelementptr inbounds nuw %struct.hwloc_internal_distances_s, ptr %49, i32 0, i32 9
  store ptr null, ptr %50, align 8, !tbaa !56
  %51 = load ptr, ptr %10, align 8, !tbaa !46
  %52 = getelementptr inbounds nuw %struct.hwloc_internal_distances_s, ptr %51, i32 0, i32 6
  store ptr null, ptr %52, align 8, !tbaa !57
  %53 = load ptr, ptr %6, align 8, !tbaa !3
  %54 = getelementptr inbounds nuw %struct.hwloc_topology, ptr %53, i32 0, i32 26
  %55 = load i32, ptr %54, align 8, !tbaa !34
  %56 = add i32 %55, 1
  store i32 %56, ptr %54, align 8, !tbaa !34
  %57 = load ptr, ptr %10, align 8, !tbaa !46
  %58 = getelementptr inbounds nuw %struct.hwloc_internal_distances_s, ptr %57, i32 0, i32 1
  store i32 %55, ptr %58, align 8, !tbaa !64
  %59 = load ptr, ptr %10, align 8, !tbaa !46
  store ptr %59, ptr %5, align 8
  store i32 1, ptr %11, align 4
  br label %63

60:                                               ; preds = %33
  %61 = load ptr, ptr %10, align 8, !tbaa !46
  call void @hwloc_backend_distances_add__cancel(ptr noundef %61)
  br label %62

62:                                               ; preds = %60, %20, %14
  store ptr null, ptr %5, align 8
  store i32 1, ptr %11, align 4
  br label %63

63:                                               ; preds = %62, %35
  call void @llvm.lifetime.end.p0(i64 8, ptr %10) #15
  %64 = load ptr, ptr %5, align 8
  ret ptr %64
}

; Function Attrs: inlinehint nounwind willreturn memory(none) uwtable
define internal i32 @hwloc_weight_long(i64 noundef %0) #8 {
  %2 = alloca i64, align 8
  store i64 %0, ptr %2, align 8, !tbaa !80
  %3 = load i64, ptr %2, align 8, !tbaa !80
  %4 = call i64 @llvm.ctpop.i64(i64 %3)
  %5 = trunc i64 %4 to i32
  ret i32 %5
}

; Function Attrs: nounwind uwtable
define ptr @hwloc_distances_add_create(ptr noundef %0, ptr noundef %1, i64 noundef %2, i64 noundef %3) #0 {
  %5 = alloca ptr, align 8
  %6 = alloca ptr, align 8
  %7 = alloca ptr, align 8
  %8 = alloca i64, align 8
  %9 = alloca i64, align 8
  store ptr %0, ptr %6, align 8, !tbaa !3
  store ptr %1, ptr %7, align 8, !tbaa !39
  store i64 %2, ptr %8, align 8, !tbaa !80
  store i64 %3, ptr %9, align 8, !tbaa !80
  %10 = load ptr, ptr %6, align 8, !tbaa !3
  %11 = getelementptr inbounds nuw %struct.hwloc_topology, ptr %10, i32 0, i32 8
  %12 = load i64, ptr %11, align 8, !tbaa !67
  %13 = and i64 %12, 2
  %14 = icmp ne i64 %13, 0
  br i1 %14, label %17, label %15

15:                                               ; preds = %4
  %16 = call ptr @__errno_location() #17
  store i32 22, ptr %16, align 4, !tbaa !38
  store ptr null, ptr %5, align 8
  br label %46

17:                                               ; preds = %4
  %18 = load ptr, ptr %6, align 8, !tbaa !3
  %19 = getelementptr inbounds nuw %struct.hwloc_topology, ptr %18, i32 0, i32 13
  %20 = load ptr, ptr %19, align 8, !tbaa !68
  %21 = icmp ne ptr %20, null
  br i1 %21, label %22, label %24

22:                                               ; preds = %17
  %23 = call ptr @__errno_location() #17
  store i32 1, ptr %23, align 4, !tbaa !38
  store ptr null, ptr %5, align 8
  br label %46

24:                                               ; preds = %17
  %25 = load i64, ptr %8, align 8, !tbaa !80
  %26 = and i64 %25, -64
  %27 = icmp ne i64 %26, 0
  br i1 %27, label %38, label %28

28:                                               ; preds = %24
  %29 = load i64, ptr %8, align 8, !tbaa !80
  %30 = and i64 %29, 3
  %31 = call i32 @hwloc_weight_long(i64 noundef %30) #17
  %32 = icmp sgt i32 %31, 1
  br i1 %32, label %38, label %33

33:                                               ; preds = %28
  %34 = load i64, ptr %8, align 8, !tbaa !80
  %35 = and i64 %34, 44
  %36 = call i32 @hwloc_weight_long(i64 noundef %35) #17
  %37 = icmp sgt i32 %36, 1
  br i1 %37, label %38, label %40

38:                                               ; preds = %33, %28, %24
  %39 = call ptr @__errno_location() #17
  store i32 22, ptr %39, align 4, !tbaa !38
  store ptr null, ptr %5, align 8
  br label %46

40:                                               ; preds = %33
  %41 = load ptr, ptr %6, align 8, !tbaa !3
  %42 = load ptr, ptr %7, align 8, !tbaa !39
  %43 = load i64, ptr %8, align 8, !tbaa !80
  %44 = load i64, ptr %9, align 8, !tbaa !80
  %45 = call ptr @hwloc_backend_distances_add_create(ptr noundef %41, ptr noundef %42, i64 noundef %43, i64 noundef %44)
  store ptr %45, ptr %5, align 8
  br label %46

46:                                               ; preds = %40, %38, %22, %15
  %47 = load ptr, ptr %5, align 8
  ret ptr %47
}

; Function Attrs: nounwind uwtable
define i32 @hwloc_distances_add(ptr noundef %0, i32 noundef %1, ptr noundef %2, ptr noundef %3, i64 noundef %4, i64 noundef %5) #0 {
  %7 = alloca i32, align 4
  %8 = alloca ptr, align 8
  %9 = alloca i32, align 4
  %10 = alloca ptr, align 8
  %11 = alloca ptr, align 8
  %12 = alloca i64, align 8
  %13 = alloca i64, align 8
  %14 = alloca ptr, align 8
  %15 = alloca i32, align 4
  %16 = alloca i32, align 4
  store ptr %0, ptr %8, align 8, !tbaa !3
  store i32 %1, ptr %9, align 4, !tbaa !38
  store ptr %2, ptr %10, align 8, !tbaa !82
  store ptr %3, ptr %11, align 8, !tbaa !83
  store i64 %4, ptr %12, align 8, !tbaa !80
  store i64 %5, ptr %13, align 8, !tbaa !80
  call void @llvm.lifetime.start.p0(i64 8, ptr %14) #15
  call void @llvm.lifetime.start.p0(i64 4, ptr %15) #15
  %17 = load ptr, ptr %8, align 8, !tbaa !3
  %18 = load i64, ptr %12, align 8, !tbaa !80
  %19 = call ptr @hwloc_distances_add_create(ptr noundef %17, ptr noundef null, i64 noundef %18, i64 noundef 0)
  store ptr %19, ptr %14, align 8, !tbaa !81
  %20 = load ptr, ptr %14, align 8, !tbaa !81
  %21 = icmp ne ptr %20, null
  br i1 %21, label %23, label %22

22:                                               ; preds = %6
  store i32 -1, ptr %7, align 4
  store i32 1, ptr %16, align 4
  br label %42

23:                                               ; preds = %6
  %24 = load ptr, ptr %8, align 8, !tbaa !3
  %25 = load ptr, ptr %14, align 8, !tbaa !81
  %26 = load i32, ptr %9, align 4, !tbaa !38
  %27 = load ptr, ptr %10, align 8, !tbaa !82
  %28 = load ptr, ptr %11, align 8, !tbaa !83
  %29 = call i32 @hwloc_distances_add_values(ptr noundef %24, ptr noundef %25, i32 noundef %26, ptr noundef %27, ptr noundef %28, i64 noundef 0)
  store i32 %29, ptr %15, align 4, !tbaa !38
  %30 = load i32, ptr %15, align 4, !tbaa !38
  %31 = icmp slt i32 %30, 0
  br i1 %31, label %32, label %33

32:                                               ; preds = %23
  store i32 -1, ptr %7, align 4
  store i32 1, ptr %16, align 4
  br label %42

33:                                               ; preds = %23
  %34 = load ptr, ptr %8, align 8, !tbaa !3
  %35 = load ptr, ptr %14, align 8, !tbaa !81
  %36 = load i64, ptr %13, align 8, !tbaa !80
  %37 = call i32 @hwloc_distances_add_commit(ptr noundef %34, ptr noundef %35, i64 noundef %36)
  store i32 %37, ptr %15, align 4, !tbaa !38
  %38 = load i32, ptr %15, align 4, !tbaa !38
  %39 = icmp slt i32 %38, 0
  br i1 %39, label %40, label %41

40:                                               ; preds = %33
  store i32 -1, ptr %7, align 4
  store i32 1, ptr %16, align 4
  br label %42

41:                                               ; preds = %33
  store i32 0, ptr %7, align 4
  store i32 1, ptr %16, align 4
  br label %42

42:                                               ; preds = %41, %40, %32, %22
  call void @llvm.lifetime.end.p0(i64 4, ptr %15) #15
  call void @llvm.lifetime.end.p0(i64 8, ptr %14) #15
  %43 = load i32, ptr %7, align 4
  ret i32 %43
}