; Function Attrs: nounwind uwtable
define range(i32 -1, 1) i32 @hwloc_distances_add(ptr noundef %0, i32 noundef %1, ptr noundef readonly captures(none) %2, ptr noundef readonly captures(none) %3, i64 noundef %4, i64 noundef %5) local_unnamed_addr #1 {
  %7 = getelementptr inbounds nuw i8, ptr %0, i64 200
  %8 = load i64, ptr %7, align 8, !tbaa !63
  %9 = and i64 %8, 2
  %.not.i = icmp eq i64 %9, 0
  br i1 %.not.i, label %10, label %12

10:                                               ; preds = %6
  %11 = tail call ptr @__errno_location() #30
  store i32 22, ptr %11, align 4, !tbaa !3
  br label %hwloc_distances_add_create.exit.thread

12:                                               ; preds = %6
  %13 = getelementptr inbounds nuw i8, ptr %0, i64 240
  %14 = load ptr, ptr %13, align 8, !tbaa !64
  %.not9.i = icmp eq ptr %14, null
  br i1 %.not9.i, label %17, label %15

15:                                               ; preds = %12
  %16 = tail call ptr @__errno_location() #30
  store i32 1, ptr %16, align 4, !tbaa !3
  br label %hwloc_distances_add_create.exit.thread

17:                                               ; preds = %12
  %.not10.i = icmp ult i64 %4, 64
  br i1 %.not10.i, label %18, label %26

18:                                               ; preds = %17
  %19 = and i64 %4, 3
  %20 = tail call range(i64 0, 3) i64 @llvm.ctpop.i64(i64 range(i64 0, 45) %19)
  %21 = icmp samesign ugt i64 %20, 1
  br i1 %21, label %26, label %22

22:                                               ; preds = %18
  %23 = and i64 %4, 44
  %24 = tail call range(i64 0, 4) i64 @llvm.ctpop.i64(i64 range(i64 0, 45) %23)
  %25 = icmp samesign ugt i64 %24, 1
  br i1 %25, label %26, label %28

26:                                               ; preds = %22, %18, %17
  %27 = tail call ptr @__errno_location() #30
  store i32 22, ptr %27, align 4, !tbaa !3
  br label %hwloc_distances_add_create.exit.thread

28:                                               ; preds = %22
  %29 = tail call noalias dereferenceable_or_null(88) ptr @calloc(i64 noundef 1, i64 noundef 88) #31
  %.not21.i.i = icmp eq ptr %29, null
  br i1 %.not21.i.i, label %hwloc_distances_add_create.exit.thread, label %30

30:                                               ; preds = %28
  %31 = getelementptr inbounds nuw i8, ptr %29, i64 48
  store i64 %4, ptr %31, align 8, !tbaa !57
  %32 = getelementptr inbounds nuw i8, ptr %29, i64 56
  store i32 2, ptr %32, align 8, !tbaa !59
  %33 = getelementptr inbounds nuw i8, ptr %29, i64 12
  store i32 -1, ptr %33, align 4, !tbaa !56
  %34 = getelementptr inbounds nuw i8, ptr %0, i64 744
  %35 = load i32, ptr %34, align 8, !tbaa !50
  %36 = add i32 %35, 1
  store i32 %36, ptr %34, align 8, !tbaa !50
  %37 = getelementptr inbounds nuw i8, ptr %29, i64 8
  store i32 %35, ptr %37, align 8, !tbaa !58
  %38 = tail call i32 @hwloc_distances_add_values(ptr nonnull poison, ptr noundef nonnull %29, i32 noundef %1, ptr noundef %2, ptr noundef %3, i64 noundef 0)
  %39 = icmp slt i32 %38, 0
  br i1 %39, label %hwloc_distances_add_create.exit.thread, label %40

40:                                               ; preds = %30
  %41 = tail call i32 @hwloc_distances_add_commit(ptr noundef nonnull %0, ptr noundef nonnull %29, i64 noundef %5)
  br label %hwloc_distances_add_create.exit.thread

hwloc_distances_add_create.exit.thread:           ; preds = %28, %10, %26, %15, %40, %30
  %.0 = phi i32 [ -1, %30 ], [ %41, %40 ], [ -1, %15 ], [ -1, %26 ], [ -1, %10 ], [ -1, %28 ]
  ret i32 %.0
}